target datalayout = "e-m:e-p270:32:32-p271:32:32-p272:64:64-i64:64-i128:128-f80:128-n8:16:32:64-S128"
target triple = "x86_64-pc-linux-gnu"

%struct.quic_terminate_cause_st = type { i64, i64, ptr, i64, i8 }

@.str = private unnamed_addr constant [13 x i8] c"connectivity\00", align 1
@.str.9 = private unnamed_addr constant [18 x i8] c"connection_closed\00", align 1
@.str.10 = private unnamed_addr constant [31 x i8] c"connectivity:connection_closed\00", align 1
@.str.11 = private unnamed_addr constant [6 x i8] c"owner\00", align 1
@.str.12 = private unnamed_addr constant [7 x i8] c"remote\00", align 1
@.str.13 = private unnamed_addr constant [6 x i8] c"local\00", align 1
@.str.14 = private unnamed_addr constant [17 x i8] c"application_code\00", align 1
@.str.15 = private unnamed_addr constant [22 x i8] c"crypto_error_0x%03llx\00", align 1
@.str.16 = private unnamed_addr constant [16 x i8] c"connection_code\00", align 1
@.str.17 = private unnamed_addr constant [7 x i8] c"reason\00", align 1
@.str.35 = private unnamed_addr constant [15 x i8] c"internal_error\00", align 1
@.str.36 = private unnamed_addr constant [19 x i8] c"connection_refused\00", align 1
@.str.37 = private unnamed_addr constant [19 x i8] c"flow_control_error\00", align 1
@.str.38 = private unnamed_addr constant [19 x i8] c"stream_limit_error\00", align 1
@.str.39 = private unnamed_addr constant [19 x i8] c"stream_state_error\00", align 1
@.str.40 = private unnamed_addr constant [17 x i8] c"final_size_error\00", align 1
@.str.41 = private unnamed_addr constant [21 x i8] c"frame_encoding_error\00", align 1
@.str.42 = private unnamed_addr constant [26 x i8] c"transport_parameter_error\00", align 1
@.str.43 = private unnamed_addr constant [26 x i8] c"connection_id_limit_error\00", align 1
@.str.44 = private unnamed_addr constant [19 x i8] c"protocol_violation\00", align 1
@.str.45 = private unnamed_addr constant [14 x i8] c"invalid_token\00", align 1
@.str.46 = private unnamed_addr constant [18 x i8] c"application_error\00", align 1
@.str.47 = private unnamed_addr constant [23 x i8] c"crypto_buffer_exceeded\00", align 1
@.str.48 = private unnamed_addr constant [17 x i8] c"key_update_error\00", align 1
@.str.49 = private unnamed_addr constant [19 x i8] c"aead_limit_reached\00", align 1
@.str.50 = private unnamed_addr constant [15 x i8] c"no_viable_path\00", align 1

; Function Attrs: nounwind uwtable
define internal ptr @quic_err_to_qlog(i64 noundef %0) #0 {
  %2 = alloca ptr, align 8
  %3 = alloca i64, align 8
  store i64 %0, ptr %3, align 8, !tbaa !23
  %4 = load i64, ptr %3, align 8, !tbaa !23
  switch i64 %4, label %21 [
    i64 1, label %5
    i64 2, label %6
    i64 3, label %7
    i64 4, label %8
    i64 5, label %9
    i64 6, label %10
    i64 7, label %11
    i64 8, label %12
    i64 9, label %13
    i64 10, label %14
    i64 11, label %15
    i64 12, label %16
    i64 13, label %17
    i64 14, label %18
    i64 15, label %19
    i64 16, label %20
  ]

5:                                                ; preds = %1
  store ptr @.str.35, ptr %2, align 8
  br label %22

6:                                                ; preds = %1
  store ptr @.str.36, ptr %2, align 8
  br label %22

7:                                                ; preds = %1
  store ptr @.str.37, ptr %2, align 8
  br label %22

8:                                                ; preds = %1
  store ptr @.str.38, ptr %2, align 8
  br label %22

9:                                                ; preds = %1
  store ptr @.str.39, ptr %2, align 8
  br label %22

10:                                               ; preds = %1
  store ptr @.str.40, ptr %2, align 8
  br label %22

11:                                               ; preds = %1
  store ptr @.str.41, ptr %2, align 8
  br label %22

12:                                               ; preds = %1
  store ptr @.str.42, ptr %2, align 8
  br label %22

13:                                               ; preds = %1
  store ptr @.str.43, ptr %2, align 8
  br label %22

14:                                               ; preds = %1
  store ptr @.str.44, ptr %2, align 8
  br label %22

15:                                               ; preds = %1
  store ptr @.str.45, ptr %2, align 8
  br label %22

16:                                               ; preds = %1
  store ptr @.str.46, ptr %2, align 8
  br label %22

17:                                               ; preds = %1
  store ptr @.str.47, ptr %2, align 8
  br label %22

18:                                               ; preds = %1
  store ptr @.str.48, ptr %2, align 8
  br label %22

19:                                               ; preds = %1
  store ptr @.str.49, ptr %2, align 8
  br label %22

20:                                               ; preds = %1
  store ptr @.str.50, ptr %2, align 8
  br label %22

21:                                               ; preds = %1
  store ptr null, ptr %2, align 8
  br label %22

22:                                               ; preds = %21, %20, %19, %18, %17, %16, %15, %14, %13, %12, %11, %10, %9, %8, %7, %6, %5
  %23 = load ptr, ptr %2, align 8
  ret ptr %23
}

; Function Attrs: nounwind uwtable
define void @ossl_qlog_event_connectivity_connection_closed(ptr noundef %0, ptr noundef %1) #0 {
  %3 = alloca ptr, align 8
  %4 = alloca ptr, align 8
  %5 = alloca ptr, align 8
  %6 = alloca i32, align 4
  %7 = alloca ptr, align 8
  %8 = alloca [32 x i8], align 16
  store ptr %0, ptr %3, align 8, !tbaa !3
  store ptr %1, ptr %4, align 8, !tbaa !16
  call void @llvm.lifetime.start.p0(i64 8, ptr %5) #5
  %9 = load ptr, ptr %3, align 8, !tbaa !3
  store ptr %9, ptr %5, align 8, !tbaa !3
  call void @llvm.lifetime.start.p0(i64 4, ptr %6) #5
  store i32 3, ptr %6, align 4, !tbaa !10
  %10 = load ptr, ptr %5, align 8, !tbaa !3
  %11 = load i32, ptr %6, align 4, !tbaa !10
  %12 = call i32 @ossl_qlog_event_try_begin(ptr noundef %10, i32 noundef %11, ptr noundef @.str, ptr noundef @.str.9, ptr noundef @.str.10)
  %13 = icmp ne i32 %12, 0
  br i1 %13, label %14, label %77

14:                                               ; preds = %2
  %15 = load ptr, ptr %5, align 8, !tbaa !3
  %16 = load ptr, ptr %4, align 8, !tbaa !16
  %17 = getelementptr inbounds nuw %struct.quic_terminate_cause_st, ptr %16, i32 0, i32 4
  %18 = load i8, ptr %17, align 8
  %19 = lshr i8 %18, 1
  %20 = and i8 %19, 1
  %21 = zext i8 %20 to i32
  %22 = icmp ne i32 %21, 0
  %23 = select i1 %22, ptr @.str.12, ptr @.str.13
  call void @ossl_qlog_str(ptr noundef %15, ptr noundef @.str.11, ptr noundef %23)
  %24 = load ptr, ptr %4, align 8, !tbaa !16
  %25 = getelementptr inbounds nuw %struct.quic_terminate_cause_st, ptr %24, i32 0, i32 4
  %26 = load i8, ptr %25, align 8
  %27 = and i8 %26, 1
  %28 = zext i8 %27 to i32
  %29 = icmp ne i32 %28, 0
  br i1 %29, label %30, label %35

30:                                               ; preds = %14
  %31 = load ptr, ptr %5, align 8, !tbaa !3
  %32 = load ptr, ptr %4, align 8, !tbaa !16
  %33 = getelementptr inbounds nuw %struct.quic_terminate_cause_st, ptr %32, i32 0, i32 0
  %34 = load i64, ptr %33, align 8, !tbaa !18
  call void @ossl_qlog_u64(ptr noundef %31, ptr noundef @.str.14, i64 noundef %34)
  br label %68

35:                                               ; preds = %14
  call void @llvm.lifetime.start.p0(i64 8, ptr %7) #5
  %36 = load ptr, ptr %4, align 8, !tbaa !16
  %37 = getelementptr inbounds nuw %struct.quic_terminate_cause_st, ptr %36, i32 0, i32 0
  %38 = load i64, ptr %37, align 8, !tbaa !18
  %39 = call ptr @quic_err_to_qlog(i64 noundef %38)
  store ptr %39, ptr %7, align 8, !tbaa !14
  call void @llvm.lifetime.start.p0(i64 32, ptr %8) #5
  %40 = load ptr, ptr %4, align 8, !tbaa !16
  %41 = getelementptr inbounds nuw %struct.quic_terminate_cause_st, ptr %40, i32 0, i32 0
  %42 = load i64, ptr %41, align 8, !tbaa !18
  %43 = icmp uge i64 %42, 256
  br i1 %43, label %44, label %56

44:                                               ; preds = %35
  %45 = load ptr, ptr %4, align 8, !tbaa !16
  %46 = getelementptr inbounds nuw %struct.quic_terminate_cause_st, ptr %45, i32 0, i32 0
  %47 = load i64, ptr %46, align 8, !tbaa !18
  %48 = icmp ule i64 %47, 511
  br i1 %48, label %49, label %56

49:                                               ; preds = %44
  %50 = getelementptr inbounds [32 x i8], ptr %8, i64 0, i64 0
  %51 = load ptr, ptr %4, align 8, !tbaa !16
  %52 = getelementptr inbounds nuw %struct.quic_terminate_cause_st, ptr %51, i32 0, i32 0
  %53 = load i64, ptr %52, align 8, !tbaa !18
  %54 = call i32 (ptr, i64, ptr, ...) @BIO_snprintf(ptr noundef %50, i64 noundef 32, ptr noundef @.str.15, i64 noundef %53)
  %55 = getelementptr inbounds [32 x i8], ptr %8, i64 0, i64 0
  store ptr %55, ptr %7, align 8, !tbaa !14
  br label %56

56:                                               ; preds = %49, %44, %35
  %57 = load ptr, ptr %7, align 8, !tbaa !14
  %58 = icmp ne ptr %57, null
  br i1 %58, label %59, label %62

59:                                               ; preds = %56
  %60 = load ptr, ptr %5, align 8, !tbaa !3
  %61 = load ptr, ptr %7, align 8, !tbaa !14
  call void @ossl_qlog_str(ptr noundef %60, ptr noundef @.str.16, ptr noundef %61)
  br label %67

62:                                               ; preds = %56
  %63 = load ptr, ptr %5, align 8, !tbaa !3
  %64 = load ptr, ptr %4, align 8, !tbaa !16
  %65 = getelementptr inbounds nuw %struct.quic_terminate_cause_st, ptr %64, i32 0, i32 0
  %66 = load i64, ptr %65, align 8, !tbaa !18
  call void @ossl_qlog_u64(ptr noundef %63, ptr noundef @.str.16, i64 noundef %66)
  br label %67

67:                                               ; preds = %62, %59
  call void @llvm.lifetime.end.p0(i64 32, ptr %8) #5
  call void @llvm.lifetime.end.p0(i64 8, ptr %7) #5
  br label %68

68:                                               ; preds = %67, %30
  %69 = load ptr, ptr %5, align 8, !tbaa !3
  %70 = load ptr, ptr %4, align 8, !tbaa !16
  %71 = getelementptr inbounds nuw %struct.quic_terminate_cause_st, ptr %70, i32 0, i32 2
  %72 = load ptr, ptr %71, align 8, !tbaa !21
  %73 = load ptr, ptr %4, align 8, !tbaa !16
  %74 = getelementptr inbounds nuw %struct.quic_terminate_cause_st, ptr %73, i32 0, i32 3
  %75 = load i64, ptr %74, align 8, !tbaa !22
  call void @ossl_qlog_str_len(ptr noundef %69, ptr noundef @.str.17, ptr noundef %72, i64 noundef %75)
  %76 = load ptr, ptr %5, align 8, !tbaa !3
  call void @ossl_qlog_event_end(ptr noundef %76)
  br label %77

77:                                               ; preds = %68, %2
  call void @llvm.lifetime.end.p0(i64 4, ptr %6) #5
  call void @llvm.lifetime.end.p0(i64 8, ptr %5) #5
  ret void
}