; Function Attrs: nounwind uwtable
define void @ossl_qlog_event_connectivity_connection_closed(ptr noundef %0, ptr noundef readonly captures(none) %1) local_unnamed_addr #0 {
  %3 = alloca [32 x i8], align 16
  %4 = tail call i32 @ossl_qlog_event_try_begin(ptr noundef %0, i32 noundef 3, ptr noundef nonnull @.str, ptr noundef nonnull @.str.9, ptr noundef nonnull @.str.10) #3
  %.not = icmp eq i32 %4, 0
  br i1 %.not, label %27, label %5

5:                                                ; preds = %2
  %6 = getelementptr inbounds nuw i8, ptr %1, i64 32
  %7 = load i8, ptr %6, align 8
  %8 = and i8 %7, 2
  %.not21 = icmp eq i8 %8, 0
  %9 = select i1 %.not21, ptr @.str.13, ptr @.str.12
  tail call void @ossl_qlog_str(ptr noundef %0, ptr noundef nonnull @.str.11, ptr noundef nonnull %9) #3
  %10 = load i8, ptr %6, align 8
  %11 = and i8 %10, 1
  %.not22 = icmp eq i8 %11, 0
  %12 = load i64, ptr %1, align 8, !tbaa !7
  br i1 %.not22, label %14, label %13

13:                                               ; preds = %5
  tail call void @ossl_qlog_u64(ptr noundef %0, ptr noundef nonnull @.str.14, i64 noundef %12) #3
  br label %22

14:                                               ; preds = %5
  %switch.tableidx = add i64 %12, -1
  %15 = icmp ult i64 %switch.tableidx, 16
  br i1 %15, label %switch.lookup, label %quic_err_to_qlog.exit

switch.lookup:                                    ; preds = %14
  %switch.gep = getelementptr inbounds nuw [16 x ptr], ptr @switch.table.ossl_qlog_event_connectivity_connection_closed, i64 0, i64 %switch.tableidx
  %switch.load = load ptr, ptr %switch.gep, align 8
  call void @llvm.lifetime.start.p0(i64 32, ptr nonnull %3) #3
  br label %19

quic_err_to_qlog.exit:                            ; preds = %14
  call void @llvm.lifetime.start.p0(i64 32, ptr nonnull %3) #3
  %16 = and i64 %12, -256
  %or.cond = icmp eq i64 %16, 256
  br i1 %or.cond, label %17, label %20

17:                                               ; preds = %quic_err_to_qlog.exit
  %18 = call i32 (ptr, i64, ptr, ...) @BIO_snprintf(ptr noundef nonnull %3, i64 noundef 32, ptr noundef nonnull @.str.15, i64 noundef %12) #3
  br label %19

19:                                               ; preds = %17, %switch.lookup
  %.0.ph = phi ptr [ %switch.load, %switch.lookup ], [ %3, %17 ]
  call void @ossl_qlog_str(ptr noundef %0, ptr noundef nonnull @.str.16, ptr noundef nonnull %.0.ph) #3
  br label %21

20:                                               ; preds = %quic_err_to_qlog.exit
  tail call void @ossl_qlog_u64(ptr noundef %0, ptr noundef nonnull @.str.16, i64 noundef %12) #3
  br label %21

21:                                               ; preds = %20, %19
  call void @llvm.lifetime.end.p0(i64 32, ptr nonnull %3) #3
  br label %22

22:                                               ; preds = %21, %13
  %23 = getelementptr inbounds nuw i8, ptr %1, i64 16
  %24 = load ptr, ptr %23, align 8, !tbaa !13
  %25 = getelementptr inbounds nuw i8, ptr %1, i64 24
  %26 = load i64, ptr %25, align 8, !tbaa !14
  call void @ossl_qlog_str_len(ptr noundef %0, ptr noundef nonnull @.str.17, ptr noundef %24, i64 noundef %26) #3
  call void @ossl_qlog_event_end(ptr noundef %0) #3
  br label %27

27:                                               ; preds = %22, %2
  ret void
}